; Function Attrs: mustprogress nofree norecurse nosync nounwind willreturn memory(none) uwtable
define range(i32 5, 13) i32 @FSE_optimalTableLog(i32 noundef %0, i64 noundef %1, i32 noundef %2) local_unnamed_addr #1 {
  %4 = trunc i64 %1 to i32
  %5 = add i32 %4, -1
  %6 = tail call range(i32 0, 32) i32 @llvm.ctlz.i32(i32 %5, i1 true)
  %7 = sub nsw i32 29, %6
  %8 = tail call range(i32 0, 32) i32 @llvm.ctlz.i32(i32 %4, i1 true)
  %9 = sub nuw nsw i32 32, %8
  %10 = tail call range(i32 0, 32) i32 @llvm.ctlz.i32(i32 %2, i1 true)
  %11 = sub nuw nsw i32 33, %10
  %12 = tail call range(i32 1, 33) i32 @llvm.umin.i32(i32 %9, i32 %11)
  %13 = icmp eq i32 %0, 0
  %spec.store.select.i = select i1 %13, i32 11, i32 %0
  %spec.select.i = tail call i32 @llvm.umin.i32(i32 %7, i32 %spec.store.select.i)
  %.1.i = tail call i32 @llvm.umax.i32(i32 %12, i32 %spec.select.i)
  %spec.store.select1.i = tail call i32 @llvm.umax.i32(i32 %.1.i, i32 5)
  %spec.store.select2.i = tail call range(i32 5, 13) i32 @llvm.umin.i32(i32 %spec.store.select1.i, i32 12)
  ret i32 %spec.store.select2.i
}